(lp0
ccopy_reg
_reconstructor
p1
(cpatSpider.items
PatspiderItem
p2
c__builtin__
object
p3
Ntp4
Rp5
(dp6
S'_values'
p7
(dp8
S'title'
p9
VQuick Sort (25)
p10
sS'pass_rate'
p11
V0.21
p12
sS'pass_times'
p13
V1146
p14
sS'submit_times'
p15
V5383
p16
sS'does_pass'
p17
VY
p18
sS'id'
p19
V1101
p20
ssbag1
(g2
g3
Ntp21
Rp22
(dp23
g7
(dp24
g9
VInvert a Binary Tree (25)
p25
sg11
V0.63
p26
sg13
V1249
p27
sg15
V1988
p28
sg17
g18
sg19
V1102
p29
ssbag1
(g2
g3
Ntp30
Rp31
(dp32
g7
(dp33
g9
VInteger Factorization (30)
p34
sg11
V0.25
p35
sg13
V1254
p36
sg15
V5091
p37
sg17
g18
sg19
V1103
p38
ssbag1
(g2
g3
Ntp39
Rp40
(dp41
g7
(dp42
g9
VSum of Number Segments (20)
p43
sg11
V0.32
p44
sg13
V1386
p45
sg15
V4301
p46
sg17
g18
sg19
V1104
p47
ssbag1
(g2
g3
Ntp48
Rp49
(dp50
g7
(dp51
g9
VSpiral Matrix (25)
p52
sg11
V0.34
p53
sg13
V835
p54
sg15
V2485
p55
sg17
g18
sg19
V1105
p56
ssbag1
(g2
g3
Ntp57
Rp58
(dp59
g7
(dp60
g9
VLowest Price in Supply Chain (25)
p61
sg11
V0.39
p62
sg13
V976
p63
sg15
V2481
p64
sg17
g18
sg19
V1106
p65
ssbag1
(g2
g3
Ntp66
Rp67
(dp68
g7
(dp69
g9
VSocial Clusters (30)
p70
sg11
V0.39
p71
sg13
V1156
p72
sg15
V2938
p73
sg17
g18
sg19
V1107
p74
ssbag1
(g2
g3
Ntp75
Rp76
(dp77
g7
(dp78
g9
VFinding Average (20)
p79
sg11
V0.23
p80
sg13
V755
p81
sg15
V3312
p82
sg17
g18
sg19
V1108
p83
ssbag1
(g2
g3
Ntp84
Rp85
(dp86
g7
(dp87
g9
VGroup Photo (25)
p88
sg11
V0.33
p89
sg13
V615
p90
sg15
V1874
p91
sg17
g18
sg19
V1109
p92
ssbag1
(g2
g3
Ntp93
Rp94
(dp95
g7
(dp96
g9
VComplete Binary Tree (25)
p97
sg11
V0.23
p98
sg13
V805
p99
sg15
V3469
p100
sg17
g18
sg19
V1110
p101
ssbag1
(g2
g3
Ntp102
Rp103
(dp104
g7
(dp105
g9
VOnline Map (30)
p106
sg11
V0.24
p107
sg13
V592
p108
sg15
V2505
p109
sg17
g18
sg19
V1111
p110
ssbag1
(g2
g3
Ntp111
Rp112
(dp113
g7
(dp114
g9
VStucked Keyboard (20)
p115
sg11
V0.24
p116
sg13
V660
p117
sg15
V2734
p118
sg17
V6
p119
sg19
V1112
p120
ssbag1
(g2
g3
Ntp121
Rp122
(dp123
g7
(dp124
g9
VInteger Set Partition (25)
p125
sg11
V0.61
p126
sg13
V705
p127
sg15
V1148
p128
sg17
g18
sg19
V1113
p129
ssbag1
(g2
g3
Ntp130
Rp131
(dp132
g7
(dp133
g9
VFamily Property (25)
p134
sg11
V0.4
p135
sg13
V565
p136
sg15
V1399
p137
sg17
g18
sg19
V1114
p138
ssbag1
(g2
g3
Ntp139
Rp140
(dp141
g7
(dp142
g9
VCounting Nodes in a BST (30)
p143
sg11
V0.42
p144
sg13
V743
p145
sg15
V1761
p146
sg17
g18
sg19
V1115
p147
ssbag1
(g2
g3
Ntp148
Rp149
(dp150
g7
(dp151
g9
VCome on! Let's C (20)
p152
sg11
V0.38
p153
sg13
V582
p154
sg15
V1534
p155
sg17
S'Not submit'
p156
sg19
V1116
p157
ssbag1
(g2
g3
Ntp158
Rp159
(dp160
g7
(dp161
g9
VEddington Number(25)
p162
sg11
V0.24
p163
sg13
V637
p164
sg15
V2688
p165
sg17
g18
sg19
V1117
p166
ssbag1
(g2
g3
Ntp167
Rp168
(dp169
g7
(dp170
g9
VBirds in Forest (25)
p171
sg11
V0.32
p172
sg13
V750
p173
sg15
V2377
p174
sg17
g18
sg19
V1118
p175
ssbag1
(g2
g3
Ntp176
Rp177
(dp178
g7
(dp179
g9
VPre- and Post-order Traversals (30)
p180
sg11
V0.35
p181
sg13
V638
p182
sg15
V1811
p183
sg17
g18
sg19
V1119
p184
ssbag1
(g2
g3
Ntp185
Rp186
(dp187
g7
(dp188
g9
VFriend Numbers (20)
p189
sg11
V0.58
p190
sg13
V551
p191
sg15
V949
p192
sg17
g18
sg19
V1120
p193
ssbag1
(g2
g3
Ntp194
Rp195
(dp196
g7
(dp197
g9
VDamn Single (25)
p198
sg11
V0.28
p199
sg13
V477
p200
sg15
V1703
p201
sg17
g18
sg19
V1121
p202
ssbag1
(g2
g3
Ntp203
Rp204
(dp205
g7
(dp206
g9
VHamiltonian Cycle (25)
p207
sg11
V0.27
p208
sg13
V438
p209
sg15
V1647
p210
sg17
V4
p211
sg19
V1122
p212
ssbag1
(g2
g3
Ntp213
Rp214
(dp215
g7
(dp216
g9
VIs It a Complete AVL Tree (30)
p217
sg11
V0.4
p218
sg13
V440
p219
sg15
V1113
p220
sg17
g18
sg19
V1123
p221
ssbag1
(g2
g3
Ntp222
Rp223
(dp224
g7
(dp225
g9
VRaffle for Weibo Followers (20)
p226
sg11
V0.36
p227
sg13
V316
p228
sg15
V888
p229
sg17
g156
sg19
V1124
p230
ssbag1
(g2
g3
Ntp231
Rp232
(dp233
g7
(dp234
g9
VChain the Ropes (25)
p235
sg11
V0.49
p236
sg13
V305
p237
sg15
V624
p238
sg17
g156
sg19
V1125
p239
ssbag1
(g2
g3
Ntp240
Rp241
(dp242
g7
(dp243
g9
VEulerian Path (25)
p244
sg11
V0.21
p245
sg13
V254
p246
sg15
V1227
p247
sg17
g156
sg19
V1126
p248
ssbag1
(g2
g3
Ntp249
Rp250
(dp251
g7
(dp252
g9
VZigZagging on a Tree (30)
p253
sg11
V0.46
p254
sg13
V255
p255
sg15
V553
p256
sg17
g156
sg19
V1127
p257
ssbag1
(g2
g3
Ntp258
Rp259
(dp260
g7
(dp261
g9
VN Queens Puzzle (20)
p262
sg11
V0.39
p263
sg13
V122
p264
sg15
V314
p265
sg17
g156
sg19
V1128
p266
ssbag1
(g2
g3
Ntp267
Rp268
(dp269
g7
(dp270
g9
VRecommendation System (25)
p271
sg11
V0.33
p272
sg13
V81
p273
sg15
V249
p274
sg17
g156
sg19
V1129
p275
ssbag1
(g2
g3
Ntp276
Rp277
(dp278
g7
(dp279
g9
VInfix Expression (25)
p280
sg11
V0.43
p281
sg13
V91
p282
sg15
V211
p283
sg17
g156
sg19
V1130
p284
ssbag1
(g2
g3
Ntp285
Rp286
(dp287
g7
(dp288
g9
VSubway Map (30)
p289
sg11
V0.24
p290
sg13
V68
p291
sg15
V286
p292
sg17
g156
sg19
V1131
p293
ssbag1
(g2
g3
Ntp294
Rp295
(dp296
g7
(dp297
g9
VA+B Format (20)
p298
sg11
V0.28
p299
sg13
V12846
p300
sg15
V45811
p301
sg17
g18
sg19
V1001
p302
ssbag1
(g2
g3
Ntp303
Rp304
(dp305
g7
(dp306
g9
VA+B for Polynomials (25)
p307
sg11
V0.2
p308
sg13
V9848
p309
sg15
V48545
p310
sg17
g18
sg19
V1002
p311
ssbag1
(g2
g3
Ntp312
Rp313
(dp314
g7
(dp315
g9
VEmergency (25)
p316
sg11
V0.25
p317
sg13
V7243
p318
sg15
V28459
p319
sg17
g18
sg19
V1003
p320
ssbag1
(g2
g3
Ntp321
Rp322
(dp323
g7
(dp324
g9
VCounting Leaves (30)
p325
sg11
V0.35
p326
sg13
V5509
p327
sg15
V15780
p328
sg17
g18
sg19
V1004
p329
ssbag1
(g2
g3
Ntp330
Rp331
(dp332
g7
(dp333
g9
VSpell It Right (20)
p334
sg11
V0.39
p335
sg13
V7061
p336
sg15
V18321
p337
sg17
g18
sg19
V1005
p338
ssbag1
(g2
g3
Ntp339
Rp340
(dp341
g7
(dp342
g9
VSign In and Sign Out (25)
p343
sg11
V0.5
p344
sg13
V6470
p345
sg15
V12894
p346
sg17
g18
sg19
V1006
p347
ssbag1
(g2
g3
Ntp348
Rp349
(dp350
g7
(dp351
g9
VMaximum Subsequence Sum (25)
p352
sg11
V0.2
p353
sg13
V6049
p354
sg15
V29623
p355
sg17
g18
sg19
V1007
p356
ssbag1
(g2
g3
Ntp357
Rp358
(dp359
g7
(dp360
g9
VElevator (20)
p361
sg11
V0.63
p362
sg13
V6427
p363
sg15
V10236
p364
sg17
g18
sg19
V1008
p365
ssbag1
(g2
g3
Ntp366
Rp367
(dp368
g7
(dp369
g9
VProduct of Polynomials (25)
p370
sg11
V0.3
p371
sg13
V5489
p372
sg15
V18068
p373
sg17
g18
sg19
V1009
p374
ssbag1
(g2
g3
Ntp375
Rp376
(dp377
g7
(dp378
g9
VRadix (25)
p379
sg11
V0.08
p380
sg13
V4190
p381
sg15
V50057
p382
sg17
g156
sg19
V1010
p383
ssbag1
(g2
g3
Ntp384
Rp385
(dp386
g7
(dp387
g9
VWorld Cup Betting (20)
p388
sg11
V0.55
p389
sg13
V5869
p390
sg15
V10692
p391
sg17
g18
sg19
V1011
p392
ssbag1
(g2
g3
Ntp393
Rp394
(dp395
g7
(dp396
g9
VThe Best Rank (25)
p397
sg11
V0.28
p398
sg13
V4390
p399
sg15
V15731
p400
sg17
g18
sg19
V1012
p401
ssbag1
(g2
g3
Ntp402
Rp403
(dp404
g7
(dp405
g9
VBattle Over Cities (25)
p406
sg11
V0.33
p407
sg13
V4843
p408
sg15
V14729
p409
sg17
g18
sg19
V1013
p410
ssbag1
(g2
g3
Ntp411
Rp412
(dp413
g7
(dp414
g9
VWaiting in Line (30)
p415
sg11
V0.22
p416
sg13
V2865
p417
sg15
V12983
p418
sg17
g18
sg19
V1014
p419
ssbag1
(g2
g3
Ntp420
Rp421
(dp422
g7
(dp423
g9
VReversible Primes (20)
p424
sg11
V0.27
p425
sg13
V4591
p426
sg15
V16715
p427
sg17
g18
sg19
V1015
p428
ssbag1
(g2
g3
Ntp429
Rp430
(dp431
g7
(dp432
g9
VPhone Bills (25)
p433
sg11
V0.2
p434
sg13
V2353
p435
sg15
V12037
p436
sg17
g18
sg19
V1016
p437
ssbag1
(g2
g3
Ntp438
Rp439
(dp440
g7
(dp441
g9
VQueueing at Bank (25)
p442
sg11
V0.22
p443
sg13
V2580
p444
sg15
V11487
p445
sg17
g18
sg19
V1017
p446
ssbag1
(g2
g3
Ntp447
Rp448
(dp449
g7
(dp450
g9
VPublic Bike Management (30)
p451
sg11
V0.19
p452
sg13
V2585
p453
sg15
V13408
p454
sg17
g18
sg19
V1018
p455
ssbag1
(g2
g3
Ntp456
Rp457
(dp458
g7
(dp459
g9
VGeneral Palindromic Number (20)
p460
sg11
V0.36
p461
sg13
V3848
p462
sg15
V10548
p463
sg17
g18
sg19
V1019
p464
ssbag1
(g2
g3
Ntp465
Rp466
(dp467
g7
(dp468
g9
VTree Traversals (25)
p469
sg11
V0.53
p470
sg13
V3913
p471
sg15
V7353
p472
sg17
g18
sg19
V1020
p473
ssbag1
(g2
g3
Ntp474
Rp475
(dp476
g7
(dp477
g9
VDeepest Root (25)
p478
sg11
V0.22
p479
sg13
V2841
p480
sg15
V12695
p481
sg17
g18
sg19
V1021
p482
ssbag1
(g2
g3
Ntp483
Rp484
(dp485
g7
(dp486
g9
VDigital Library (30)
p487
sg11
V0.29
p488
sg13
V2457
p489
sg15
V8350
p490
sg17
g18
sg19
V1022
p491
ssbag1
(g2
g3
Ntp492
Rp493
(dp494
g7
(dp495
g9
VHave Fun with Numbers (20)
p496
sg11
V0.33
p497
sg13
V3359
p498
sg15
V10079
p499
sg17
g18
sg19
V1023
p500
ssbag1
(g2
g3
Ntp501
Rp502
(dp503
g7
(dp504
g9
VPalindromic Number (25)
p505
sg11
V0.28
p506
sg13
V2778
p507
sg15
V10039
p508
sg17
g18
sg19
V1024
p509
ssbag1
(g2
g3
Ntp510
Rp511
(dp512
g7
(dp513
g9
VPAT Ranking (25)
p514
sg11
V0.32
p515
sg13
V3130
p516
sg15
V9766
p517
sg17
g18
sg19
V1025
p518
ssbag1
(g2
g3
Ntp519
Rp520
(dp521
g7
(dp522
g9
VTable Tennis (30)
p523
sg11
V0.15
p524
sg13
V1557
p525
sg15
V10152
p526
sg17
V2
p527
sg19
V1026
p528
ssbag1
(g2
g3
Ntp529
Rp530
(dp531
g7
(dp532
g9
VColors in Mars (20)
p533
sg11
V0.56
p534
sg13
V3775
p535
sg15
V6746
p536
sg17
g18
sg19
V1027
p537
ssbag1
(g2
g3
Ntp538
Rp539
(dp540
g7
(dp541
g9
VList Sorting (25)
p542
sg11
V0.29
p543
sg13
V2963
p544
sg15
V10125
p545
sg17
g18
sg19
V1028
p546
ssbag1
(g2
g3
Ntp547
Rp548
(dp549
g7
(dp550
g9
VMedian (25)
p551
sg11
V0.23
p552
sg13
V3333
p553
sg15
V14472
p554
sg17
V11
p555
sg19
V1029
p556
ssbag1
(g2
g3
Ntp557
Rp558
(dp559
g7
(dp560
g9
VTravel Plan (30)
p561
sg11
V0.45
p562
sg13
V2926
p563
sg15
V6575
p564
sg17
g18
sg19
V1030
p565
ssbag1
(g2
g3
Ntp566
Rp567
(dp568
g7
(dp569
g9
VHello World for U (20)
p570
sg11
V0.55
p571
sg13
V3619
p572
sg15
V6569
p573
sg17
g18
sg19
V1031
p574
ssbag1
(g2
g3
Ntp575
Rp576
(dp577
g7
(dp578
g9
VSharing (25)
p579
sg11
V0.21
p580
sg13
V2843
p581
sg15
V13460
p582
sg17
g18
sg19
V1032
p583
ssbag1
(g2
g3
Ntp584
Rp585
(dp586
g7
(dp587
g9
VTo Fill or Not to Fill (25)
p588
sg11
V0.28
p589
sg13
V2233
p590
sg15
V8092
p591
sg17
g18
sg19
V1033
p592
ssbag1
(g2
g3
Ntp593
Rp594
(dp595
g7
(dp596
g9
VHead of a Gang (30)
p597
sg11
V0.27
p598
sg13
V2248
p599
sg15
V8399
p600
sg17
g18
sg19
V1034
p601
ssbag1
(g2
g3
Ntp602
Rp603
(dp604
g7
(dp605
g9
VPassword (20)
p606
sg11
V0.32
p607
sg13
V2940
p608
sg15
V9138
p609
sg17
g18
sg19
V1035
p610
ssbag1
(g2
g3
Ntp611
Rp612
(dp613
g7
(dp614
g9
VBoys vs Girls (25)
p615
sg11
V0.51
p616
sg13
V2963
p617
sg15
V5782
p618
sg17
g18
sg19
V1036
p619
ssbag1
(g2
g3
Ntp620
Rp621
(dp622
g7
(dp623
g9
VMagic Coupon (25)
p624
sg11
V0.39
p625
sg13
V2413
p626
sg15
V6127
p627
sg17
g18
sg19
V1037
p628
ssbag1
(g2
g3
Ntp629
Rp630
(dp631
g7
(dp632
g9
VRecover the Smallest Number (30)
p633
sg11
V0.27
p634
sg13
V2324
p635
sg15
V8591
p636
sg17
g18
sg19
V1038
p637
ssbag1
(g2
g3
Ntp638
Rp639
(dp640
g7
(dp641
g9
VCourse List for Student (25)
p642
sg11
V0.17
p643
sg13
V2230
p644
sg15
V12765
p645
sg17
g18
sg19
V1039
p646
ssbag1
(g2
g3
Ntp647
Rp648
(dp649
g7
(dp650
g9
VLongest Symmetric String (25)
p651
sg11
V0.4
p652
sg13
V2375
p653
sg15
V6002
p654
sg17
g18
sg19
V1040
p655
ssbag1
(g2
g3
Ntp656
Rp657
(dp658
g7
(dp659
g9
VBe Unique (20)
p660
sg11
V0.36
p661
sg13
V2935
p662
sg15
V8208
p663
sg17
g18
sg19
V1041
p664
ssbag1
(g2
g3
Ntp665
Rp666
(dp667
g7
(dp668
g9
VShuffling Machine (20)
p669
sg11
V0.5
p670
sg13
V2936
p671
sg15
V5851
p672
sg17
g18
sg19
V1042
p673
ssbag1
(g2
g3
Ntp674
Rp675
(dp676
g7
(dp677
g9
VIs It a Binary Search Tree (25)
p678
sg11
V0.37
p679
sg13
V2248
p680
sg15
V6041
p681
sg17
g18
sg19
V1043
p682
ssbag1
(g2
g3
Ntp683
Rp684
(dp685
g7
(dp686
g9
VShopping in Mars (25)
p687
sg11
V0.27
p688
sg13
V2019
p689
sg15
V7501
p690
sg17
g18
sg19
V1044
p691
ssbag1
(g2
g3
Ntp692
Rp693
(dp694
g7
(dp695
g9
VFavorite Color Stripe (30)
p696
sg11
V0.37
p697
sg13
V1945
p698
sg15
V5323
p699
sg17
g18
sg19
V1045
p700
ssbag1
(g2
g3
Ntp701
Rp702
(dp703
g7
(dp704
g9
VShortest Distance (20)
p705
sg11
V0.32
p706
sg13
V2667
p707
sg15
V8446
p708
sg17
g18
sg19
V1046
p709
ssbag1
(g2
g3
Ntp710
Rp711
(dp712
g7
(dp713
g9
VStudent List for Course (25)
p714
sg11
V0.26
p715
sg13
V2206
p716
sg15
V8365
p717
sg17
g18
sg19
V1047
p718
ssbag1
(g2
g3
Ntp719
Rp720
(dp721
g7
(dp722
g9
VFind Coins (25)
p723
sg11
V0.32
p724
sg13
V2731
p725
sg15
V8656
p726
sg17
g18
sg19
V1048
p727
ssbag1
(g2
g3
Ntp728
Rp729
(dp730
g7
(dp731
g9
VCounting Ones (30)
p732
sg11
V0.33
p733
sg13
V1862
p734
sg15
V5596
p735
sg17
g18
sg19
V1049
p736
ssbag1
(g2
g3
Ntp737
Rp738
(dp739
g7
(dp740
g9
VString Subtraction (20)
p741
sg11
V0.43
p742
sg13
V2773
p743
sg15
V6377
p744
sg17
g18
sg19
V1050
p745
ssbag1
(g2
g3
Ntp746
Rp747
(dp748
g7
(dp749
g9
VPop Sequence (25)
p750
sg11
V0.51
p751
sg13
V2524
p752
sg15
V4941
p753
sg17
g18
sg19
V1051
p754
ssbag1
(g2
g3
Ntp755
Rp756
(dp757
g7
(dp758
g9
VLinked List Sorting (25)
p759
sg11
V0.19
p760
sg13
V2045
p761
sg15
V10587
p762
sg17
g18
sg19
V1052
p763
ssbag1
(g2
g3
Ntp764
Rp765
(dp766
g7
(dp767
g9
VPath of Equal Weight (30)
p768
sg11
V0.44
p769
sg13
V2130
p770
sg15
V4894
p771
sg17
g18
sg19
V1053
p772
ssbag1
(g2
g3
Ntp773
Rp774
(dp775
g7
(dp776
g9
VThe Dominant Color (20)
p777
sg11
V0.4
p778
sg13
V2732
p779
sg15
V6833
p780
sg17
g18
sg19
V1054
p781
ssbag1
(g2
g3
Ntp782
Rp783
(dp784
g7
(dp785
g9
VThe World's Richest (25)
p786
sg11
V0.18
p787
sg13
V2296
p788
sg15
V12715
p789
sg17
g18
sg19
V1055
p790
ssbag1
(g2
g3
Ntp791
Rp792
(dp793
g7
(dp794
g9
VMice and Rice (25)
p795
sg11
V0.47
p796
sg13
V1638
p797
sg15
V3474
p798
sg17
g18
sg19
V1056
p799
ssbag1
(g2
g3
Ntp800
Rp801
(dp802
g7
(dp803
g9
VStack (30)
p804
sg11
V0.2
p805
sg13
V1737
p806
sg15
V8798
p807
sg17
g18
sg19
V1057
p808
ssbag1
(g2
g3
Ntp809
Rp810
(dp811
g7
(dp812
g9
VA+B in Hogwarts (20)
p813
sg11
V0.49
p814
sg13
V2654
p815
sg15
V5389
p816
sg17
g18
sg19
V1058
p817
ssbag1
(g2
g3
Ntp818
Rp819
(dp820
g7
(dp821
g9
VPrime Factors (25)
p822
sg11
V0.33
p823
sg13
V2333
p824
sg15
V7101
p825
sg17
g18
sg19
V1059
p826
ssbag1
(g2
g3
Ntp827
Rp828
(dp829
g7
(dp830
g9
VAre They Equal (25)
p831
sg11
V0.18
p832
sg13
V1638
p833
sg15
V9226
p834
sg17
g211
sg19
V1060
p835
ssbag1
(g2
g3
Ntp836
Rp837
(dp838
g7
(dp839
g9
VDating (20)
p840
sg11
V0.24
p841
sg13
V2085
p842
sg15
V8513
p843
sg17
g18
sg19
V1061
p844
ssbag1
(g2
g3
Ntp845
Rp846
(dp847
g7
(dp848
g9
VTalent and Virtue (25)
p849
sg11
V0.37
p850
sg13
V1916
p851
sg15
V5229
p852
sg17
g18
sg19
V1062
p853
ssbag1
(g2
g3
Ntp854
Rp855
(dp856
g7
(dp857
g9
VSet Similarity (25)
p858
sg11
V0.38
p859
sg13
V2050
p860
sg15
V5338
p861
sg17
g18
sg19
V1063
p862
ssbag1
(g2
g3
Ntp863
Rp864
(dp865
g7
(dp866
g9
VComplete Binary Search Tree (30)
p867
sg11
V0.61
p868
sg13
V2000
p869
sg15
V3259
p870
sg17
g18
sg19
V1064
p871
ssbag1
(g2
g3
Ntp872
Rp873
(dp874
g7
(dp875
g9
VA+B and C (64bit) (20)
p876
sg11
V0.25
p877
sg13
V3134
p878
sg15
V12524
p879
sg17
g18
sg19
V1065
p880
ssbag1
(g2
g3
Ntp881
Rp882
(dp883
g7
(dp884
g9
VRoot of AVL Tree (25)
p885
sg11
V0.42
p886
sg13
V1469
p887
sg15
V3471
p888
sg17
g18
sg19
V1066
p889
ssbag1
(g2
g3
Ntp890
Rp891
(dp892
g7
(dp893
g9
VSort with Swap(0,*) (25)
p894
sg11
V0.27
p895
sg13
V1762
p896
sg15
V6609
p897
sg17
g119
sg19
V1067
p898
ssbag1
(g2
g3
Ntp899
Rp900
(dp901
g7
(dp902
g9
VFind More Coins (30)
p903
sg11
V0.28
p904
sg13
V1585
p905
sg15
V5654
p906
sg17
g18
sg19
V1068
p907
ssbag1
(g2
g3
Ntp908
Rp909
(dp910
g7
(dp911
g9
VThe Black Hole of Numbers (20)
p912
sg11
V0.33
p913
sg13
V1963
p914
sg15
V5874
p915
sg17
g18
sg19
V1069
p916
ssbag1
(g2
g3
Ntp917
Rp918
(dp919
g7
(dp920
g9
VMooncake (25)
p921
sg11
V0.35
p922
sg13
V1860
p923
sg15
V5375
p924
sg17
g18
sg19
V1070
p925
ssbag1
(g2
g3
Ntp926
Rp927
(dp928
g7
(dp929
g9
VSpeech Patterns (25)
p930
sg11
V0.33
p931
sg13
V1872
p932
sg15
V5708
p933
sg17
g18
sg19
V1071
p934
ssbag1
(g2
g3
Ntp935
Rp936
(dp937
g7
(dp938
g9
VGas Station (30)
p939
sg11
V0.23
p940
sg13
V1522
p941
sg15
V6535
p942
sg17
g18
sg19
V1072
p943
ssbag1
(g2
g3
Ntp944
Rp945
(dp946
g7
(dp947
g9
VScientific Notation (20)
p948
sg11
V0.38
p949
sg13
V1735
p950
sg15
V4583
p951
sg17
g18
sg19
V1073
p952
ssbag1
(g2
g3
Ntp953
Rp954
(dp955
g7
(dp956
g9
VReversing Linked List (25)
p957
sg11
V0.24
p958
sg13
V1556
p959
sg15
V6356
p960
sg17
V9
p961
sg19
V1074
p962
ssbag1
(g2
g3
Ntp963
Rp964
(dp965
g7
(dp966
g9
VPAT Judge (25)
p967
sg11
V0.22
p968
sg13
V1529
p969
sg15
V6997
p970
sg17
g18
sg19
V1075
p971
ssbag1
(g2
g3
Ntp972
Rp973
(dp974
g7
(dp975
g9
VForwards on Weibo (30)
p976
sg11
V0.36
p977
sg13
V1856
p978
sg15
V5117
p979
sg17
g18
sg19
V1076
p980
ssbag1
(g2
g3
Ntp981
Rp982
(dp983
g7
(dp984
g9
VKuchiguse (20)
p985
sg11
V0.37
p986
sg13
V1899
p987
sg15
V5191
p988
sg17
g18
sg19
V1077
p989
ssbag1
(g2
g3
Ntp990
Rp991
(dp992
g7
(dp993
g9
VHashing (25)
p994
sg11
V0.21
p995
sg13
V1892
p996
sg15
V9084
p997
sg17
g18
sg19
V1078
p998
ssbag1
(g2
g3
Ntp999
Rp1000
(dp1001
g7
(dp1002
g9
VTotal Sales of Supply Chain (25)
p1003
sg11
V0.37
p1004
sg13
V1573
p1005
sg15
V4297
p1006
sg17
g18
sg19
V1079
p1007
ssbag1
(g2
g3
Ntp1008
Rp1009
(dp1010
g7
(dp1011
g9
VGraduate Admission (30)
p1012
sg11
V0.3
p1013
sg13
V1375
p1014
sg15
V4588
p1015
sg17
g18
sg19
V1080
p1016
ssbag1
(g2
g3
Ntp1017
Rp1018
(dp1019
g7
(dp1020
g9
VRational Sum (20)
p1021
sg11
V0.27
p1022
sg13
V1647
p1023
sg15
V6136
p1024
sg17
g18
sg19
V1081
p1025
ssbag1
(g2
g3
Ntp1026
Rp1027
(dp1028
g7
(dp1029
g9
VRead Number in Chinese (25)
p1030
sg11
V0.27
p1031
sg13
V1326
p1032
sg15
V4838
p1033
sg17
g18
sg19
V1082
p1034
ssbag1
(g2
g3
Ntp1035
Rp1036
(dp1037
g7
(dp1038
g9
VList Grades (25)
p1039
sg11
V0.56
p1040
sg13
V1669
p1041
sg15
V3006
p1042
sg17
g18
sg19
V1083
p1043
ssbag1
(g2
g3
Ntp1044
Rp1045
(dp1046
g7
(dp1047
g9
VBroken Keyboard (20)
p1048
sg11
V0.5
p1049
sg13
V1859
p1050
sg15
V3690
p1051
sg17
g18
sg19
V1084
p1052
ssbag1
(g2
g3
Ntp1053
Rp1054
(dp1055
g7
(dp1056
g9
VPerfect Sequence (25)
p1057
sg11
V0.25
p1058
sg13
V1932
p1059
sg15
V7696
p1060
sg17
g18
sg19
V1085
p1061
ssbag1
(g2
g3
Ntp1062
Rp1063
(dp1064
g7
(dp1065
g9
VTree Traversals Again (25)
p1066
sg11
V0.5
p1067
sg13
V1783
p1068
sg15
V3561
p1069
sg17
g18
sg19
V1086
p1070
ssbag1
(g2
g3
Ntp1071
Rp1072
(dp1073
g7
(dp1074
g9
VAll Roads Lead to Rome (30)
p1075
sg11
V0.32
p1076
sg13
V1459
p1077
sg15
V4629
p1078
sg17
g18
sg19
V1087
p1079
ssbag1
(g2
g3
Ntp1080
Rp1081
(dp1082
g7
(dp1083
g9
VRational Arithmetic (20)
p1084
sg11
V0.29
p1085
sg13
V1191
p1086
sg15
V4059
p1087
sg17
g18
sg19
V1088
p1088
ssbag1
(g2
g3
Ntp1089
Rp1090
(dp1091
g7
(dp1092
g9
VInsert or Merge (25)
p1093
sg11
V0.29
p1094
sg13
V1247
p1095
sg15
V4306
p1096
sg17
g18
sg19
V1089
p1097
ssbag1
(g2
g3
Ntp1098
Rp1099
(dp1100
g7
(dp1101
g9
VHighest Price in Supply Chain (25)
p1102
sg11
V0.4
p1103
sg13
V1405
p1104
sg15
V3539
p1105
sg17
g18
sg19
V1090
p1106
ssbag1
(g2
g3
Ntp1107
Rp1108
(dp1109
g7
(dp1110
g9
VAcute Stroke (30)
p1111
sg11
V0.27
p1112
sg13
V1188
p1113
sg15
V4335
p1114
sg17
g18
sg19
V1091
p1115
ssbag1
(g2
g3
Ntp1116
Rp1117
(dp1118
g7
(dp1119
g9
VTo Buy or Not to Buy (20)
p1120
sg11
V0.55
p1121
sg13
V1541
p1122
sg15
V2794
p1123
sg17
g18
sg19
V1092
p1124
ssbag1
(g2
g3
Ntp1125
Rp1126
(dp1127
g7
(dp1128
g9
VCount PAT's (25)
p1129
sg11
V0.37
p1130
sg13
V1563
p1131
sg15
V4182
p1132
sg17
g18
sg19
V1093
p1133
ssbag1
(g2
g3
Ntp1134
Rp1135
(dp1136
g7
(dp1137
g9
VThe Largest Generation (25)
p1138
sg11
V0.54
p1139
sg13
V1434
p1140
sg15
V2653
p1141
sg17
g18
sg19
V1094
p1142
ssbag1
(g2
g3
Ntp1143
Rp1144
(dp1145
g7
(dp1146
g9
VCars on Campus (30)
p1147
sg11
V0.21
p1148
sg13
V1237
p1149
sg15
V5808
p1150
sg17
g527
sg19
V1095
p1151
ssbag1
(g2
g3
Ntp1152
Rp1153
(dp1154
g7
(dp1155
g9
VConsecutive Factors (20)
p1156
sg11
V0.21
p1157
sg13
V1417
p1158
sg15
V6889
p1159
sg17
g18
sg19
V1096
p1160
ssbag1
(g2
g3
Ntp1161
Rp1162
(dp1163
g7
(dp1164
g9
VDeduplication on a Linked List (25)
p1165
sg11
V0.29
p1166
sg13
V1140
p1167
sg15
V3898
p1168
sg17
g18
sg19
V1097
p1169
ssbag1
(g2
g3
Ntp1170
Rp1171
(dp1172
g7
(dp1173
g9
VInsertion or Heap Sort (25)
p1174
sg11
V0.31
p1175
sg13
V1045
p1176
sg15
V3401
p1177
sg17
g18
sg19
V1098
p1178
ssbag1
(g2
g3
Ntp1179
Rp1180
(dp1181
g7
(dp1182
g9
VBuild A Binary Search Tree (30)
p1183
sg11
V0.58
p1184
sg13
V1453
p1185
sg15
V2502
p1186
sg17
g18
sg19
V1099
p1187
ssbag1
(g2
g3
Ntp1188
Rp1189
(dp1190
g7
(dp1191
g9
VMars Numbers (20)
p1192
sg11
V0.3
p1193
sg13
V1291
p1194
sg15
V4367
p1195
sg17
g18
sg19
V1100
p1196
ssba.